target datalayout = "e-m:e-p270:32:32-p271:32:32-p272:64:64-i64:64-i128:128-f80:128-n8:16:32:64-S128"
target triple = "x86_64-pc-linux-gnu"

%struct.hwloc_infos_s = type { ptr, i32, i32 }
%struct.hwloc_internal_distances_s = type { ptr, i32, i32, ptr, i32, ptr, ptr, i64, i32, ptr, ptr, ptr }
%struct.hwloc_obj = type { i32, ptr, i32, ptr, i64, ptr, i32, i32, ptr, ptr, ptr, i32, ptr, ptr, i32, ptr, ptr, ptr, i32, i32, ptr, i32, ptr, i32, ptr, ptr, ptr, ptr, ptr, %struct.hwloc_infos_s, ptr, i64 }

@stderr = external global ptr, align 8
@.str.6 = private unnamed_addr constant [3 x i8] c"%s\00", align 1
@.str.7 = private unnamed_addr constant [9 x i8] c"gp_index\00", align 1
@.str.8 = private unnamed_addr constant [9 x i8] c"os_index\00", align 1
@.str.9 = private unnamed_addr constant [6 x i8] c" % 5d\00", align 1
@.str.10 = private unnamed_addr constant [2 x i8] c"\0A\00", align 1
@.str.11 = private unnamed_addr constant [7 x i8] c"  % 5d\00", align 1
@.str.12 = private unnamed_addr constant [8 x i8] c" % 5lld\00", align 1

; Function Attrs: nounwind uwtable
define internal void @hwloc_internal_distances_print_matrix(ptr noundef %0) #0 {
  %2 = alloca ptr, align 8
  %3 = alloca i32, align 4
  %4 = alloca ptr, align 8
  %5 = alloca ptr, align 8
  %6 = alloca i32, align 4
  %7 = alloca i32, align 4
  %8 = alloca i32, align 4
  store ptr %0, ptr %2, align 8, !tbaa !46
  call void @llvm.lifetime.start.p0(i64 4, ptr %3) #15
  %9 = load ptr, ptr %2, align 8, !tbaa !46
  %10 = getelementptr inbounds nuw %struct.hwloc_internal_distances_s, ptr %9, i32 0, i32 4
  %11 = load i32, ptr %10, align 8, !tbaa !61
  store i32 %11, ptr %3, align 4, !tbaa !38
  call void @llvm.lifetime.start.p0(i64 8, ptr %4) #15
  %12 = load ptr, ptr %2, align 8, !tbaa !46
  %13 = getelementptr inbounds nuw %struct.hwloc_internal_distances_s, ptr %12, i32 0, i32 9
  %14 = load ptr, ptr %13, align 8, !tbaa !56
  store ptr %14, ptr %4, align 8, !tbaa !82
  call void @llvm.lifetime.start.p0(i64 8, ptr %5) #15
  %15 = load ptr, ptr %2, align 8, !tbaa !46
  %16 = getelementptr inbounds nuw %struct.hwloc_internal_distances_s, ptr %15, i32 0, i32 6
  %17 = load ptr, ptr %16, align 8, !tbaa !57
  store ptr %17, ptr %5, align 8, !tbaa !83
  call void @llvm.lifetime.start.p0(i64 4, ptr %6) #15
  %18 = load ptr, ptr %2, align 8, !tbaa !46
  %19 = getelementptr inbounds nuw %struct.hwloc_internal_distances_s, ptr %18, i32 0, i32 2
  %20 = load i32, ptr %19, align 4, !tbaa !62
  %21 = icmp eq i32 %20, 4
  br i1 %21, label %27, label %22

22:                                               ; preds = %1
  %23 = load ptr, ptr %2, align 8, !tbaa !46
  %24 = getelementptr inbounds nuw %struct.hwloc_internal_distances_s, ptr %23, i32 0, i32 2
  %25 = load i32, ptr %24, align 4, !tbaa !62
  %26 = icmp eq i32 %25, 14
  br label %27

27:                                               ; preds = %22, %1
  %28 = phi i1 [ true, %1 ], [ %26, %22 ]
  %29 = xor i1 %28, true
  %30 = zext i1 %29 to i32
  store i32 %30, ptr %6, align 4, !tbaa !38
  call void @llvm.lifetime.start.p0(i64 4, ptr %7) #15
  call void @llvm.lifetime.start.p0(i64 4, ptr %8) #15
  %31 = load ptr, ptr @stderr, align 8, !tbaa !101
  %32 = load i32, ptr %6, align 4, !tbaa !38
  %33 = icmp ne i32 %32, 0
  %34 = select i1 %33, ptr @.str.7, ptr @.str.8
  %35 = call i32 (ptr, ptr, ...) @fprintf(ptr noundef %31, ptr noundef @.str.6, ptr noundef %34) #15
  store i32 0, ptr %8, align 4, !tbaa !38
  br label %36

36:                                               ; preds = %65, %27
  %37 = load i32, ptr %8, align 4, !tbaa !38
  %38 = load i32, ptr %3, align 4, !tbaa !38
  %39 = icmp ult i32 %37, %38
  br i1 %39, label %40, label %68

40:                                               ; preds = %36
  %41 = load ptr, ptr @stderr, align 8, !tbaa !101
  %42 = load i32, ptr %6, align 4, !tbaa !38
  %43 = icmp ne i32 %42, 0
  br i1 %43, label %44, label %52

44:                                               ; preds = %40
  %45 = load ptr, ptr %4, align 8, !tbaa !82
  %46 = load i32, ptr %8, align 4, !tbaa !38
  %47 = zext i32 %46 to i64
  %48 = getelementptr inbounds nuw ptr, ptr %45, i64 %47
  %49 = load ptr, ptr %48, align 8, !tbaa !84
  %50 = getelementptr inbounds nuw %struct.hwloc_obj, ptr %49, i32 0, i32 31
  %51 = load i64, ptr %50, align 8, !tbaa !94
  br label %61

52:                                               ; preds = %40
  %53 = load ptr, ptr %4, align 8, !tbaa !82
  %54 = load i32, ptr %8, align 4, !tbaa !38
  %55 = zext i32 %54 to i64
  %56 = getelementptr inbounds nuw ptr, ptr %53, i64 %55
  %57 = load ptr, ptr %56, align 8, !tbaa !84
  %58 = getelementptr inbounds nuw %struct.hwloc_obj, ptr %57, i32 0, i32 2
  %59 = load i32, ptr %58, align 8, !tbaa !92
  %60 = zext i32 %59 to i64
  br label %61

61:                                               ; preds = %52, %44
  %62 = phi i64 [ %51, %44 ], [ %60, %52 ]
  %63 = trunc i64 %62 to i32
  %64 = call i32 (ptr, ptr, ...) @fprintf(ptr noundef %41, ptr noundef @.str.9, i32 noundef %63) #15
  br label %65

65:                                               ; preds = %61
  %66 = load i32, ptr %8, align 4, !tbaa !38
  %67 = add i32 %66, 1
  store i32 %67, ptr %8, align 4, !tbaa !38
  br label %36, !llvm.loop !103

68:                                               ; preds = %36
  %69 = load ptr, ptr @stderr, align 8, !tbaa !101
  %70 = call i32 (ptr, ptr, ...) @fprintf(ptr noundef %69, ptr noundef @.str.10) #15
  store i32 0, ptr %7, align 4, !tbaa !38
  br label %71

71:                                               ; preds = %122, %68
  %72 = load i32, ptr %7, align 4, !tbaa !38
  %73 = load i32, ptr %3, align 4, !tbaa !38
  %74 = icmp ult i32 %72, %73
  br i1 %74, label %75, label %125

75:                                               ; preds = %71
  %76 = load ptr, ptr @stderr, align 8, !tbaa !101
  %77 = load i32, ptr %6, align 4, !tbaa !38
  %78 = icmp ne i32 %77, 0
  br i1 %78, label %79, label %87

79:                                               ; preds = %75
  %80 = load ptr, ptr %4, align 8, !tbaa !82
  %81 = load i32, ptr %7, align 4, !tbaa !38
  %82 = zext i32 %81 to i64
  %83 = getelementptr inbounds nuw ptr, ptr %80, i64 %82
  %84 = load ptr, ptr %83, align 8, !tbaa !84
  %85 = getelementptr inbounds nuw %struct.hwloc_obj, ptr %84, i32 0, i32 31
  %86 = load i64, ptr %85, align 8, !tbaa !94
  br label %96

87:                                               ; preds = %75
  %88 = load ptr, ptr %4, align 8, !tbaa !82
  %89 = load i32, ptr %7, align 4, !tbaa !38
  %90 = zext i32 %89 to i64
  %91 = getelementptr inbounds nuw ptr, ptr %88, i64 %90
  %92 = load ptr, ptr %91, align 8, !tbaa !84
  %93 = getelementptr inbounds nuw %struct.hwloc_obj, ptr %92, i32 0, i32 2
  %94 = load i32, ptr %93, align 8, !tbaa !92
  %95 = zext i32 %94 to i64
  br label %96

96:                                               ; preds = %87, %79
  %97 = phi i64 [ %86, %79 ], [ %95, %87 ]
  %98 = trunc i64 %97 to i32
  %99 = call i32 (ptr, ptr, ...) @fprintf(ptr noundef %76, ptr noundef @.str.11, i32 noundef %98) #15
  store i32 0, ptr %8, align 4, !tbaa !38
  br label %100

100:                                              ; preds = %116, %96
  %101 = load i32, ptr %8, align 4, !tbaa !38
  %102 = load i32, ptr %3, align 4, !tbaa !38
  %103 = icmp ult i32 %101, %102
  br i1 %103, label %104, label %119

104:                                              ; preds = %100
  %105 = load ptr, ptr @stderr, align 8, !tbaa !101
  %106 = load ptr, ptr %5, align 8, !tbaa !83
  %107 = load i32, ptr %7, align 4, !tbaa !38
  %108 = load i32, ptr %3, align 4, !tbaa !38
  %109 = mul i32 %107, %108
  %110 = load i32, ptr %8, align 4, !tbaa !38
  %111 = add i32 %109, %110
  %112 = zext i32 %111 to i64
  %113 = getelementptr inbounds nuw i64, ptr %106, i64 %112
  %114 = load i64, ptr %113, align 8, !tbaa !80
  %115 = call i32 (ptr, ptr, ...) @fprintf(ptr noundef %105, ptr noundef @.str.12, i64 noundef %114) #15
  br label %116

116:                                              ; preds = %104
  %117 = load i32, ptr %8, align 4, !tbaa !38
  %118 = add i32 %117, 1
  store i32 %118, ptr %8, align 4, !tbaa !38
  br label %100, !llvm.loop !104

119:                                              ; preds = %100
  %120 = load ptr, ptr @stderr, align 8, !tbaa !101
  %121 = call i32 (ptr, ptr, ...) @fprintf(ptr noundef %120, ptr noundef @.str.10) #15
  br label %122

122:                                              ; preds = %119
  %123 = load i32, ptr %7, align 4, !tbaa !38
  %124 = add i32 %123, 1
  store i32 %124, ptr %7, align 4, !tbaa !38
  br label %71, !llvm.loop !105

125:                                              ; preds = %71
  call void @llvm.lifetime.end.p0(i64 4, ptr %8) #15
  call void @llvm.lifetime.end.p0(i64 4, ptr %7) #15
  call void @llvm.lifetime.end.p0(i64 4, ptr %6) #15
  call void @llvm.lifetime.end.p0(i64 8, ptr %5) #15
  call void @llvm.lifetime.end.p0(i64 8, ptr %4) #15
  call void @llvm.lifetime.end.p0(i64 4, ptr %3) #15
  ret void
}