; Function Attrs: cold nofree nounwind uwtable
define internal fastcc void @hwloc_internal_distances_print_matrix(ptr noundef readonly captures(none) %0) unnamed_addr #15 {
  %2 = getelementptr inbounds nuw i8, ptr %0, i64 24
  %3 = load i32, ptr %2, align 8, !tbaa !53
  %4 = getelementptr inbounds nuw i8, ptr %0, i64 64
  %5 = load ptr, ptr %4, align 8, !tbaa !46
  %6 = getelementptr inbounds nuw i8, ptr %0, i64 40
  %7 = load ptr, ptr %6, align 8, !tbaa !47
  %8 = getelementptr inbounds nuw i8, ptr %0, i64 12
  %9 = load i32, ptr %8, align 4, !tbaa !56
  %10 = icmp ne i32 %9, 4
  %11 = icmp ne i32 %9, 14
  %spec.select = and i1 %10, %11
  %12 = load ptr, ptr @stderr, align 8, !tbaa !88
  %13 = select i1 %spec.select, ptr @.str.7, ptr @.str.8
  %14 = tail call i64 @fwrite(ptr nonnull %13, i64 8, i64 1, ptr %12) #32
  %.not = icmp eq i32 %3, 0
  br i1 %.not, label %._crit_edge.thread, label %.lr.ph

._crit_edge.thread:                               ; preds = %1
  %15 = load ptr, ptr @stderr, align 8, !tbaa !88
  %fputc68 = tail call i32 @fputc(i32 10, ptr %15)
  br label %._crit_edge37

.lr.ph:                                           ; preds = %1
  switch i32 %9, label %.lr.ph.split.preheader [
    i32 14, label %.lr.ph.split.us
    i32 4, label %.lr.ph.split.us
  ]

.lr.ph.split.preheader:                           ; preds = %.lr.ph
  %wide.trip.count45 = zext i32 %3 to i64
  br label %.lr.ph.split

.lr.ph.split.us:                                  ; preds = %.lr.ph, %.lr.ph
  %wide.trip.count = zext i32 %3 to i64
  br label %16

16:                                               ; preds = %16, %.lr.ph.split.us
  %indvars.iv = phi i64 [ %indvars.iv.next, %16 ], [ 0, %.lr.ph.split.us ]
  %17 = load ptr, ptr @stderr, align 8, !tbaa !88
  %18 = getelementptr inbounds nuw ptr, ptr %5, i64 %indvars.iv
  %19 = load ptr, ptr %18, align 8, !tbaa !72
  %20 = getelementptr inbounds nuw i8, ptr %19, i64 16
  %21 = load i32, ptr %20, align 8, !tbaa !84
  %22 = tail call i32 (ptr, ptr, ...) @fprintf(ptr noundef %17, ptr noundef nonnull @.str.9, i32 noundef %21) #33
  %indvars.iv.next = add nuw nsw i64 %indvars.iv, 1
  %exitcond.not = icmp eq i64 %indvars.iv.next, %wide.trip.count
  br i1 %exitcond.not, label %._crit_edge, label %16, !llvm.loop !90

.lr.ph.split:                                     ; preds = %.lr.ph.split.preheader, %.lr.ph.split
  %indvars.iv42 = phi i64 [ 0, %.lr.ph.split.preheader ], [ %indvars.iv.next43, %.lr.ph.split ]
  %23 = load ptr, ptr @stderr, align 8, !tbaa !88
  %24 = getelementptr inbounds nuw ptr, ptr %5, i64 %indvars.iv42
  %25 = load ptr, ptr %24, align 8, !tbaa !72
  %26 = getelementptr inbounds nuw i8, ptr %25, i64 240
  %27 = load i64, ptr %26, align 8, !tbaa !86
  %28 = trunc i64 %27 to i32
  %29 = tail call i32 (ptr, ptr, ...) @fprintf(ptr noundef %23, ptr noundef nonnull @.str.9, i32 noundef %28) #33
  %indvars.iv.next43 = add nuw nsw i64 %indvars.iv42, 1
  %exitcond46.not = icmp eq i64 %indvars.iv.next43, %wide.trip.count45
  br i1 %exitcond46.not, label %._crit_edge, label %.lr.ph.split, !llvm.loop !90

._crit_edge:                                      ; preds = %16, %.lr.ph.split
  %30 = load ptr, ptr @stderr, align 8, !tbaa !88
  %fputc = tail call i32 @fputc(i32 10, ptr %30)
  switch i32 %9, label %.lr.ph36.split.preheader [
    i32 14, label %.lr.ph36.split.us
    i32 4, label %.lr.ph36.split.us
  ]

.lr.ph36.split.preheader:                         ; preds = %._crit_edge
  %wide.trip.count66 = zext i32 %3 to i64
  br label %.lr.ph36.split

.lr.ph36.split.us:                                ; preds = %._crit_edge, %._crit_edge
  %wide.trip.count56 = zext i32 %3 to i64
  br label %31

31:                                               ; preds = %40, %.lr.ph36.split.us
  %indvars.iv53 = phi i64 [ %indvars.iv.next54, %40 ], [ 0, %.lr.ph36.split.us ]
  %32 = load ptr, ptr @stderr, align 8, !tbaa !88
  %33 = getelementptr inbounds nuw ptr, ptr %5, i64 %indvars.iv53
  %34 = load ptr, ptr %33, align 8, !tbaa !72
  %35 = getelementptr inbounds nuw i8, ptr %34, i64 16
  %36 = load i32, ptr %35, align 8, !tbaa !84
  %37 = tail call i32 (ptr, ptr, ...) @fprintf(ptr noundef %32, ptr noundef nonnull @.str.11, i32 noundef %36) #33
  %38 = trunc nuw i64 %indvars.iv53 to i32
  %39 = mul i32 %3, %38
  br label %42

40:                                               ; preds = %42
  %41 = load ptr, ptr @stderr, align 8, !tbaa !88
  %fputc31.us = tail call i32 @fputc(i32 10, ptr %41)
  %indvars.iv.next54 = add nuw nsw i64 %indvars.iv53, 1
  %exitcond57.not = icmp eq i64 %indvars.iv.next54, %wide.trip.count56
  br i1 %exitcond57.not, label %._crit_edge37, label %31, !llvm.loop !91

42:                                               ; preds = %42, %31
  %indvars.iv47 = phi i64 [ %indvars.iv.next48, %42 ], [ 0, %31 ]
  %43 = load ptr, ptr @stderr, align 8, !tbaa !88
  %44 = trunc nuw i64 %indvars.iv47 to i32
  %45 = add i32 %39, %44
  %46 = zext i32 %45 to i64
  %47 = getelementptr inbounds nuw i64, ptr %7, i64 %46
  %48 = load i64, ptr %47, align 8, !tbaa !76
  %49 = tail call i32 (ptr, ptr, ...) @fprintf(ptr noundef %43, ptr noundef nonnull @.str.12, i64 noundef %48) #33
  %indvars.iv.next48 = add nuw nsw i64 %indvars.iv47, 1
  %exitcond52.not = icmp eq i64 %indvars.iv.next48, %wide.trip.count56
  br i1 %exitcond52.not, label %40, label %42, !llvm.loop !92

.lr.ph36.split:                                   ; preds = %.lr.ph36.split.preheader, %67
  %indvars.iv63 = phi i64 [ 0, %.lr.ph36.split.preheader ], [ %indvars.iv.next64, %67 ]
  %50 = load ptr, ptr @stderr, align 8, !tbaa !88
  %51 = getelementptr inbounds nuw ptr, ptr %5, i64 %indvars.iv63
  %52 = load ptr, ptr %51, align 8, !tbaa !72
  %53 = getelementptr inbounds nuw i8, ptr %52, i64 240
  %54 = load i64, ptr %53, align 8, !tbaa !86
  %55 = trunc i64 %54 to i32
  %56 = tail call i32 (ptr, ptr, ...) @fprintf(ptr noundef %50, ptr noundef nonnull @.str.11, i32 noundef %55) #33
  %57 = trunc nuw i64 %indvars.iv63 to i32
  %58 = mul i32 %3, %57
  br label %59

59:                                               ; preds = %.lr.ph36.split, %59
  %indvars.iv58 = phi i64 [ 0, %.lr.ph36.split ], [ %indvars.iv.next59, %59 ]
  %60 = load ptr, ptr @stderr, align 8, !tbaa !88
  %61 = trunc nuw i64 %indvars.iv58 to i32
  %62 = add i32 %58, %61
  %63 = zext i32 %62 to i64
  %64 = getelementptr inbounds nuw i64, ptr %7, i64 %63
  %65 = load i64, ptr %64, align 8, !tbaa !76
  %66 = tail call i32 (ptr, ptr, ...) @fprintf(ptr noundef %60, ptr noundef nonnull @.str.12, i64 noundef %65) #33
  %indvars.iv.next59 = add nuw nsw i64 %indvars.iv58, 1
  %exitcond62.not = icmp eq i64 %indvars.iv.next59, %wide.trip.count66
  br i1 %exitcond62.not, label %67, label %59, !llvm.loop !92

67:                                               ; preds = %59
  %68 = load ptr, ptr @stderr, align 8, !tbaa !88
  %fputc31 = tail call i32 @fputc(i32 10, ptr %68)
  %indvars.iv.next64 = add nuw nsw i64 %indvars.iv63, 1
  %exitcond67.not = icmp eq i64 %indvars.iv.next64, %wide.trip.count66
  br i1 %exitcond67.not, label %._crit_edge37, label %.lr.ph36.split, !llvm.loop !91

._crit_edge37:                                    ; preds = %40, %67, %._crit_edge.thread
  ret void
}